ARM GAS  C:\Users\Home\AppData\Local\Temp\ccoiCslh.s 			page 1


   1              		.syntax unified
   2              		.cpu cortex-m0
   3              		.fpu softvfp
   4              		.eabi_attribute 20, 1
   5              		.eabi_attribute 21, 1
   6              		.eabi_attribute 23, 3
   7              		.eabi_attribute 24, 1
   8              		.eabi_attribute 25, 1
   9              		.eabi_attribute 26, 1
  10              		.eabi_attribute 30, 1
  11              		.eabi_attribute 34, 0
  12              		.eabi_attribute 18, 4
  13              		.thumb
  14              		.syntax unified
  15              		.file	"main.c"
  16              		.text
  17              	.Ltext0:
  18              		.cfi_sections	.debug_frame
  19              		.global	__aeabi_i2d
  20              		.global	__aeabi_dmul
  21              		.global	__aeabi_dcmplt
  22              		.global	__aeabi_d2iz
  23              		.section	.text.power,"ax",%progbits
  24              		.align	2
  25              		.global	power
  26              		.code	16
  27              		.thumb_func
  28              		.type	power, %function
  29              	power:
  30              	.LFB36:
  31              		.file 1 "main.c"
   1:main.c        **** /* ========================================
   2:main.c        ****  *
   3:main.c        ****  * Copyright YOUR COMPANY, THE YEAR
   4:main.c        ****  * All Rights Reserved
   5:main.c        ****  * UNPUBLISHED, LICENSED SOFTWARE.
   6:main.c        ****  *
   7:main.c        ****  * CONFIDENTIAL AND PROPRIETARY INFORMATION
   8:main.c        ****  * WHICH IS THE PROPERTY OF your company.
   9:main.c        ****  *
  10:main.c        ****  * ========================================
  11:main.c        **** */
  12:main.c        **** #include "project.h"
  13:main.c        **** 
  14:main.c        **** double PI = 3.14;
  15:main.c        **** int N = 4;
  16:main.c        **** static const double POWERS[] = {1, 3, 5, 7};
  17:main.c        **** static const double FACTORIALS[] = {1, 6, 120, 5040};
  18:main.c        **** 
  19:main.c        **** 
  20:main.c        **** double sin(double x)
  21:main.c        **** {
  22:main.c        ****     int halfPeriodsNum = x / PI;
  23:main.c        ****     x = x - halfPeriodsNum * PI;
  24:main.c        ****     double toReturn = 0;
  25:main.c        ****     for (int i = 0; i < N; i++)
  26:main.c        ****     {
ARM GAS  C:\Users\Home\AppData\Local\Temp\ccoiCslh.s 			page 2


  27:main.c        ****         toReturn +=  power(-1, (i - 1) / 2) * power(x, POWERS[i]) / FACTORIALS[i];
  28:main.c        ****     }
  29:main.c        ****     if (halfPeriodsNum % 2 == 1)
  30:main.c        ****     {
  31:main.c        ****         toReturn *= -1;
  32:main.c        ****     }
  33:main.c        ****     return toReturn;
  34:main.c        **** }
  35:main.c        **** 
  36:main.c        ****  //helper functions
  37:main.c        **** int power(int x, double a)
  38:main.c        **** {
  32              		.loc 1 38 0
  33              		.cfi_startproc
  34              		@ args = 0, pretend = 0, frame = 16
  35              		@ frame_needed = 0, uses_anonymous_args = 0
  36              	.LVL0:
  37 0000 70B5     		push	{r4, r5, r6, lr}
  38              		.cfi_def_cfa_offset 16
  39              		.cfi_offset 4, -16
  40              		.cfi_offset 5, -12
  41              		.cfi_offset 6, -8
  42              		.cfi_offset 14, -4
  43 0002 84B0     		sub	sp, sp, #16
  44              		.cfi_def_cfa_offset 32
  45 0004 0292     		str	r2, [sp, #8]
  46 0006 0393     		str	r3, [sp, #12]
  39:main.c        ****     double toReturn = x;
  47              		.loc 1 39 0
  48 0008 FFF7FEFF 		bl	__aeabi_i2d
  49              	.LVL1:
  50 000c 0090     		str	r0, [sp]
  51 000e 0191     		str	r1, [sp, #4]
  52              	.LVL2:
  53 0010 0400     		movs	r4, r0
  54 0012 0D00     		movs	r5, r1
  55              	.LBB2:
  40:main.c        ****     for (int i = 0; i < a; i++)
  56              		.loc 1 40 0
  57 0014 0026     		movs	r6, #0
  58 0016 08E0     		b	.L2
  59              	.LVL3:
  60              	.L3:
  41:main.c        ****     {
  42:main.c        ****         toReturn *= x;
  61              		.loc 1 42 0 discriminator 3
  62 0018 009A     		ldr	r2, [sp]
  63 001a 019B     		ldr	r3, [sp, #4]
  64 001c 2000     		movs	r0, r4
  65 001e 2900     		movs	r1, r5
  66 0020 FFF7FEFF 		bl	__aeabi_dmul
  67              	.LVL4:
  68 0024 0400     		movs	r4, r0
  69              	.LVL5:
  70 0026 0D00     		movs	r5, r1
  71              	.LVL6:
  40:main.c        ****     for (int i = 0; i < a; i++)
ARM GAS  C:\Users\Home\AppData\Local\Temp\ccoiCslh.s 			page 3


  72              		.loc 1 40 0 discriminator 3
  73 0028 0136     		adds	r6, r6, #1
  74              	.LVL7:
  75              	.L2:
  40:main.c        ****     for (int i = 0; i < a; i++)
  76              		.loc 1 40 0 is_stmt 0 discriminator 1
  77 002a 3000     		movs	r0, r6
  78 002c FFF7FEFF 		bl	__aeabi_i2d
  79              	.LVL8:
  80 0030 029A     		ldr	r2, [sp, #8]
  81 0032 039B     		ldr	r3, [sp, #12]
  82 0034 FFF7FEFF 		bl	__aeabi_dcmplt
  83              	.LVL9:
  84 0038 0028     		cmp	r0, #0
  85 003a EDD1     		bne	.L3
  86              	.LBE2:
  43:main.c        ****     }
  44:main.c        ****     return toReturn;
  87              		.loc 1 44 0 is_stmt 1
  88 003c 2000     		movs	r0, r4
  89 003e 2900     		movs	r1, r5
  90 0040 FFF7FEFF 		bl	__aeabi_d2iz
  91              	.LVL10:
  45:main.c        **** }
  92              		.loc 1 45 0
  93 0044 04B0     		add	sp, sp, #16
  94              		@ sp needed
  95              	.LVL11:
  96              	.LVL12:
  97 0046 70BD     		pop	{r4, r5, r6, pc}
  98              		.cfi_endproc
  99              	.LFE36:
 100              		.size	power, .-power
 101              		.global	__aeabi_ddiv
 102              		.global	__aeabi_dsub
 103              		.global	__aeabi_dadd
 104              		.section	.text.sin,"ax",%progbits
 105              		.align	2
 106              		.global	sin
 107              		.code	16
 108              		.thumb_func
 109              		.type	sin, %function
 110              	sin:
 111              	.LFB35:
  21:main.c        ****     int halfPeriodsNum = x / PI;
 112              		.loc 1 21 0
 113              		.cfi_startproc
 114              		@ args = 0, pretend = 0, frame = 16
 115              		@ frame_needed = 0, uses_anonymous_args = 0
 116              	.LVL13:
 117 0000 F0B5     		push	{r4, r5, r6, r7, lr}
 118              		.cfi_def_cfa_offset 20
 119              		.cfi_offset 4, -20
 120              		.cfi_offset 5, -16
 121              		.cfi_offset 6, -12
 122              		.cfi_offset 7, -8
 123              		.cfi_offset 14, -4
ARM GAS  C:\Users\Home\AppData\Local\Temp\ccoiCslh.s 			page 4


 124 0002 4F46     		mov	r7, r9
 125 0004 80B4     		push	{r7}
 126              		.cfi_def_cfa_offset 24
 127              		.cfi_offset 9, -24
 128 0006 84B0     		sub	sp, sp, #16
 129              		.cfi_def_cfa_offset 40
 130 0008 0600     		movs	r6, r0
 131 000a 0F00     		movs	r7, r1
  22:main.c        ****     x = x - halfPeriodsNum * PI;
 132              		.loc 1 22 0
 133 000c 2B4B     		ldr	r3, .L8
 134 000e 1C68     		ldr	r4, [r3]
 135 0010 5D68     		ldr	r5, [r3, #4]
 136 0012 2200     		movs	r2, r4
 137 0014 2B00     		movs	r3, r5
 138 0016 FFF7FEFF 		bl	__aeabi_ddiv
 139              	.LVL14:
 140 001a FFF7FEFF 		bl	__aeabi_d2iz
 141              	.LVL15:
 142 001e 8146     		mov	r9, r0
 143              	.LVL16:
  23:main.c        ****     double toReturn = 0;
 144              		.loc 1 23 0
 145 0020 FFF7FEFF 		bl	__aeabi_i2d
 146              	.LVL17:
 147 0024 2200     		movs	r2, r4
 148 0026 2B00     		movs	r3, r5
 149 0028 FFF7FEFF 		bl	__aeabi_dmul
 150              	.LVL18:
 151 002c 0200     		movs	r2, r0
 152 002e 0B00     		movs	r3, r1
 153 0030 3000     		movs	r0, r6
 154 0032 3900     		movs	r1, r7
 155 0034 FFF7FEFF 		bl	__aeabi_dsub
 156              	.LVL19:
 157 0038 0290     		str	r0, [sp, #8]
 158 003a 0391     		str	r1, [sp, #12]
 159              	.LVL20:
 160              	.LBB3:
  25:main.c        ****     {
 161              		.loc 1 25 0
 162 003c 0025     		movs	r5, #0
 163              	.LBE3:
  24:main.c        ****     for (int i = 0; i < N; i++)
 164              		.loc 1 24 0
 165 003e 0023     		movs	r3, #0
 166 0040 0193     		str	r3, [sp, #4]
 167 0042 0024     		movs	r4, #0
 168              	.LBB5:
  25:main.c        ****     {
 169              		.loc 1 25 0
 170 0044 23E0     		b	.L5
 171              	.LVL21:
 172              	.L6:
 173              	.LBB4:
  27:main.c        ****     }
 174              		.loc 1 27 0 discriminator 3
ARM GAS  C:\Users\Home\AppData\Local\Temp\ccoiCslh.s 			page 5


 175 0046 691E     		subs	r1, r5, #1
 176 0048 CB0F     		lsrs	r3, r1, #31
 177 004a 5918     		adds	r1, r3, r1
 178 004c 4910     		asrs	r1, r1, #1
 179 004e 0120     		movs	r0, #1
 180 0050 4042     		rsbs	r0, r0, #0
 181 0052 FFF7FEFF 		bl	power
 182              	.LVL22:
 183 0056 0700     		movs	r7, r0
 184 0058 EB00     		lsls	r3, r5, #3
 185 005a 194E     		ldr	r6, .L8+4
 186 005c F618     		adds	r6, r6, r3
 187 005e 3268     		ldr	r2, [r6]
 188 0060 7368     		ldr	r3, [r6, #4]
 189 0062 0298     		ldr	r0, [sp, #8]
 190 0064 0399     		ldr	r1, [sp, #12]
 191 0066 FFF7FEFF 		bl	power
 192              	.LVL23:
 193 006a 7843     		muls	r0, r7
 194 006c 776A     		ldr	r7, [r6, #36]
 195 006e 366A     		ldr	r6, [r6, #32]
 196 0070 FFF7FEFF 		bl	__aeabi_i2d
 197              	.LVL24:
 198 0074 3200     		movs	r2, r6
 199 0076 3B00     		movs	r3, r7
 200 0078 FFF7FEFF 		bl	__aeabi_ddiv
 201              	.LVL25:
 202 007c 0200     		movs	r2, r0
 203 007e 0B00     		movs	r3, r1
 204 0080 0198     		ldr	r0, [sp, #4]
 205 0082 2100     		movs	r1, r4
 206 0084 FFF7FEFF 		bl	__aeabi_dadd
 207              	.LVL26:
 208 0088 0190     		str	r0, [sp, #4]
 209              	.LVL27:
 210 008a 0C00     		movs	r4, r1
 211              	.LVL28:
 212              	.LBE4:
  25:main.c        ****     {
 213              		.loc 1 25 0 discriminator 3
 214 008c 0135     		adds	r5, r5, #1
 215              	.LVL29:
 216              	.L5:
  25:main.c        ****     {
 217              		.loc 1 25 0 is_stmt 0 discriminator 1
 218 008e 0B4B     		ldr	r3, .L8
 219 0090 9B68     		ldr	r3, [r3, #8]
 220 0092 9D42     		cmp	r5, r3
 221 0094 D7DB     		blt	.L6
 222              	.LBE5:
  29:main.c        ****     {
 223              		.loc 1 29 0 is_stmt 1
 224 0096 4B46     		mov	r3, r9
 225 0098 D90F     		lsrs	r1, r3, #31
 226 009a 5A18     		adds	r2, r3, r1
 227 009c 0123     		movs	r3, #1
 228 009e 1340     		ands	r3, r2
ARM GAS  C:\Users\Home\AppData\Local\Temp\ccoiCslh.s 			page 6


 229 00a0 5B1A     		subs	r3, r3, r1
 230 00a2 012B     		cmp	r3, #1
 231 00a4 03D1     		bne	.L7
  31:main.c        ****     }
 232              		.loc 1 31 0
 233 00a6 8023     		movs	r3, #128
 234 00a8 1B06     		lsls	r3, r3, #24
 235 00aa 9C46     		mov	ip, r3
 236 00ac 6444     		add	r4, r4, ip
 237              	.LVL30:
 238              	.L7:
  34:main.c        **** 
 239              		.loc 1 34 0
 240 00ae 0198     		ldr	r0, [sp, #4]
 241 00b0 2100     		movs	r1, r4
 242 00b2 04B0     		add	sp, sp, #16
 243              		@ sp needed
 244              	.LVL31:
 245              	.LVL32:
 246              	.LVL33:
 247 00b4 04BC     		pop	{r2}
 248 00b6 9146     		mov	r9, r2
 249 00b8 F0BD     		pop	{r4, r5, r6, r7, pc}
 250              	.L9:
 251 00ba C046     		.align	2
 252              	.L8:
 253 00bc 00000000 		.word	.LANCHOR0
 254 00c0 00000000 		.word	.LANCHOR1
 255              		.cfi_endproc
 256              	.LFE35:
 257              		.size	sin, .-sin
 258              		.section	.text.main,"ax",%progbits
 259              		.align	2
 260              		.global	main
 261              		.code	16
 262              		.thumb_func
 263              		.type	main, %function
 264              	main:
 265              	.LFB37:
  46:main.c        **** 
  47:main.c        **** double Sine_Lookup[64] = {0x19,0x1b,0x1e,0x20,0x23,0x25,0x27,0x29, 0x2b,0x2c,0x2e,0x2f,0x30,0x31,0x
  48:main.c        **** static const uint16_t sinetable[256] = {31, 32, 33, 33, 34, 35, 36, 36, 37, 38, 39, 39, 40, 41, 41,
  49:main.c        **** 
  50:main.c        **** 
  51:main.c        **** static const char LETTERS[26] = {'a', 'b', 'c', 'd', 'e', 'f', 'g', 'h', 'i', 
  52:main.c        ****     'j', 'k', 'l', 'm', 'n', 'o', 'p', 'q', 'r', 's', 't', 'u', 'v', 'w', 'x', 'y', 'z'};
  53:main.c        **** 
  54:main.c        **** int main(void)
  55:main.c        **** {
 266              		.loc 1 55 0
 267              		.cfi_startproc
 268              		@ args = 0, pretend = 0, frame = 0
 269              		@ frame_needed = 0, uses_anonymous_args = 0
 270 0000 70B5     		push	{r4, r5, r6, lr}
 271              		.cfi_def_cfa_offset 16
 272              		.cfi_offset 4, -16
 273              		.cfi_offset 5, -12
ARM GAS  C:\Users\Home\AppData\Local\Temp\ccoiCslh.s 			page 7


 274              		.cfi_offset 6, -8
 275              		.cfi_offset 14, -4
  56:main.c        ****     CyGlobalIntEnable; /* Enable global interrupts. */
 276              		.loc 1 56 0
 277              		.syntax divided
 278              	@ 56 "main.c" 1
 279 0002 62B6     		CPSIE   i
 280              	@ 0 "" 2
  57:main.c        ****     
  58:main.c        ****     //char msg[5] = {'a', 'b', 'c', 'd', 'e', 'f'};
  59:main.c        ****     
  60:main.c        ****     //int numbers[5];
  61:main.c        ****     //for (int i = 0; i < 5; i+=1) {
  62:main.c        ****       //  for (int j = 0; j < 26; j+=1) {
  63:main.c        ****         ///    if (LETTERS[j] == msg[i]) {
  64:main.c        ****            ///     numbers[i] = j;
  65:main.c        ****               //  break;
  66:main.c        ****     //        }
  67:main.c        ****       //  }
  68:main.c        ****     //}
  69:main.c        ****     
  70:main.c        ****    // int coded_msg[25];
  71:main.c        ****     //for (int i = 0; i < 5; i+=1) {
  72:main.c        ****      //   for (int j = 0; j < 5; j+=1) {
  73:main.c        ****        //     coded_msg[(i + 1) * j] = LETTERS[j];
  74:main.c        ****     //    } 
  75:main.c        ****     ///}
  76:main.c        ****     
  77:main.c        ****     int codedMsg[25] = {0, 0, 1, 1, 0, 1, 1, 0, 0, 1, 0, 1, 1, 1, 0, 1, 0, 0, 1, 0, 1, 0, 0, 1, 0};
  78:main.c        ****     
  79:main.c        ****     PWM_1_Start();
 281              		.loc 1 79 0
 282              		.thumb
 283              		.syntax unified
 284 0004 FFF7FEFF 		bl	PWM_1_Start
 285              	.LVL34:
  80:main.c        ****     int k = -1;
  81:main.c        ****     int readRate = -1;
 286              		.loc 1 81 0
 287 0008 0125     		movs	r5, #1
 288 000a 6D42     		rsbs	r5, r5, #0
 289              	.LVL35:
 290              	.L14:
  82:main.c        ****     double modulationCoeff = 0.5;
  83:main.c        ****     for (;;)
  84:main.c        ****     {
  85:main.c        ****         readRate += 1;
 291              		.loc 1 85 0
 292 000c 0135     		adds	r5, r5, #1
 293              	.LVL36:
  86:main.c        ****         if(readRate == 4) {
 294              		.loc 1 86 0
 295 000e 042D     		cmp	r5, #4
 296 0010 00D1     		bne	.L11
  87:main.c        ****             readRate = -1;
 297              		.loc 1 87 0
 298 0012 053D     		subs	r5, r5, #5
ARM GAS  C:\Users\Home\AppData\Local\Temp\ccoiCslh.s 			page 8


 299              	.LVL37:
 300              	.L11:
 301              	.LBB6:
  88:main.c        ****             k += 1;
  89:main.c        ****         } 
  90:main.c        ****         if (codedMsg[k % 15] == 1) {
  91:main.c        ****             modulationCoeff = 0.0;
  92:main.c        ****         }
  93:main.c        ****         else {
  94:main.c        ****             modulationCoeff = 0.5;
  95:main.c        ****         }
  96:main.c        ****         for(int i = 0; i < 256 * 2; i+= 1 ) {
 302              		.loc 1 96 0
 303 0014 0024     		movs	r4, #0
 304              	.LBE6:
 305 0016 0AE0     		b	.L12
 306              	.LVL38:
 307              	.L13:
 308              	.LBB8:
 309              	.LBB7:
  97:main.c        ****             double value = sinetable[i / 2];
 310              		.loc 1 97 0 discriminator 3
 311 0018 E30F     		lsrs	r3, r4, #31
 312 001a 1B19     		adds	r3, r3, r4
 313 001c 5B10     		asrs	r3, r3, #1
 314 001e 5B00     		lsls	r3, r3, #1
 315 0020 054A     		ldr	r2, .L16
 316 0022 D318     		adds	r3, r2, r3
 317 0024 4022     		movs	r2, #64
 318 0026 985A     		ldrh	r0, [r3, r2]
 319              	.LVL39:
  98:main.c        ****             //double value = (sinetable[i / 2] - 29) * (modulationCoeff + codedMsg[k % 15]) + 29;
  99:main.c        ****             PWM_1_WriteCompare(value);
 320              		.loc 1 99 0 discriminator 3
 321 0028 FFF7FEFF 		bl	PWM_1_WriteCompare
 322              	.LVL40:
 323              	.LBE7:
  96:main.c        ****             double value = sinetable[i / 2];
 324              		.loc 1 96 0 discriminator 3
 325 002c 0134     		adds	r4, r4, #1
 326              	.LVL41:
 327              	.L12:
  96:main.c        ****             double value = sinetable[i / 2];
 328              		.loc 1 96 0 is_stmt 0 discriminator 1
 329 002e 034B     		ldr	r3, .L16+4
 330 0030 9C42     		cmp	r4, r3
 331 0032 F1DD     		ble	.L13
 332 0034 EAE7     		b	.L14
 333              	.L17:
 334 0036 C046     		.align	2
 335              	.L16:
 336 0038 00000000 		.word	.LANCHOR1
 337 003c FF010000 		.word	511
 338              	.LBE8:
 339              		.cfi_endproc
 340              	.LFE37:
 341              		.size	main, .-main
ARM GAS  C:\Users\Home\AppData\Local\Temp\ccoiCslh.s 			page 9


 342              		.global	Sine_Lookup
 343              		.global	N
 344              		.global	PI
 345              		.section	.rodata
 346              		.align	3
 347              		.set	.LANCHOR1,. + 0
 348              		.type	POWERS, %object
 349              		.size	POWERS, 32
 350              	POWERS:
 351 0000 00000000 		.word	0
 352 0004 0000F03F 		.word	1072693248
 353 0008 00000000 		.word	0
 354 000c 00000840 		.word	1074266112
 355 0010 00000000 		.word	0
 356 0014 00001440 		.word	1075052544
 357 0018 00000000 		.word	0
 358 001c 00001C40 		.word	1075576832
 359              		.type	FACTORIALS, %object
 360              		.size	FACTORIALS, 32
 361              	FACTORIALS:
 362 0020 00000000 		.word	0
 363 0024 0000F03F 		.word	1072693248
 364 0028 00000000 		.word	0
 365 002c 00001840 		.word	1075314688
 366 0030 00000000 		.word	0
 367 0034 00005E40 		.word	1079902208
 368 0038 00000000 		.word	0
 369 003c 00B0B340 		.word	1085517824
 370              		.type	sinetable, %object
 371              		.size	sinetable, 512
 372              	sinetable:
 373 0040 1F00     		.short	31
 374 0042 2000     		.short	32
 375 0044 2100     		.short	33
 376 0046 2100     		.short	33
 377 0048 2200     		.short	34
 378 004a 2300     		.short	35
 379 004c 2400     		.short	36
 380 004e 2400     		.short	36
 381 0050 2500     		.short	37
 382 0052 2600     		.short	38
 383 0054 2700     		.short	39
 384 0056 2700     		.short	39
 385 0058 2800     		.short	40
 386 005a 2900     		.short	41
 387 005c 2900     		.short	41
 388 005e 2A00     		.short	42
 389 0060 2B00     		.short	43
 390 0062 2B00     		.short	43
 391 0064 2C00     		.short	44
 392 0066 2D00     		.short	45
 393 0068 2D00     		.short	45
 394 006a 2E00     		.short	46
 395 006c 2E00     		.short	46
 396 006e 2F00     		.short	47
 397 0070 3000     		.short	48
 398 0072 3000     		.short	48
ARM GAS  C:\Users\Home\AppData\Local\Temp\ccoiCslh.s 			page 10


 399 0074 3100     		.short	49
 400 0076 3100     		.short	49
 401 0078 3200     		.short	50
 402 007a 3200     		.short	50
 403 007c 3300     		.short	51
 404 007e 3300     		.short	51
 405 0080 3300     		.short	51
 406 0082 3400     		.short	52
 407 0084 3400     		.short	52
 408 0086 3500     		.short	53
 409 0088 3500     		.short	53
 410 008a 3500     		.short	53
 411 008c 3600     		.short	54
 412 008e 3600     		.short	54
 413 0090 3600     		.short	54
 414 0092 3700     		.short	55
 415 0094 3700     		.short	55
 416 0096 3700     		.short	55
 417 0098 3700     		.short	55
 418 009a 3800     		.short	56
 419 009c 3800     		.short	56
 420 009e 3800     		.short	56
 421 00a0 3800     		.short	56
 422 00a2 3800     		.short	56
 423 00a4 3800     		.short	56
 424 00a6 3900     		.short	57
 425 00a8 3900     		.short	57
 426 00aa 3900     		.short	57
 427 00ac 3900     		.short	57
 428 00ae 3900     		.short	57
 429 00b0 3900     		.short	57
 430 00b2 3900     		.short	57
 431 00b4 3900     		.short	57
 432 00b6 3900     		.short	57
 433 00b8 3900     		.short	57
 434 00ba 3900     		.short	57
 435 00bc 3900     		.short	57
 436 00be 3A00     		.short	58
 437 00c0 3A00     		.short	58
 438 00c2 3A00     		.short	58
 439 00c4 3900     		.short	57
 440 00c6 3900     		.short	57
 441 00c8 3900     		.short	57
 442 00ca 3900     		.short	57
 443 00cc 3900     		.short	57
 444 00ce 3900     		.short	57
 445 00d0 3900     		.short	57
 446 00d2 3900     		.short	57
 447 00d4 3900     		.short	57
 448 00d6 3900     		.short	57
 449 00d8 3900     		.short	57
 450 00da 3900     		.short	57
 451 00dc 3800     		.short	56
 452 00de 3800     		.short	56
 453 00e0 3800     		.short	56
 454 00e2 3800     		.short	56
 455 00e4 3800     		.short	56
ARM GAS  C:\Users\Home\AppData\Local\Temp\ccoiCslh.s 			page 11


 456 00e6 3800     		.short	56
 457 00e8 3700     		.short	55
 458 00ea 3700     		.short	55
 459 00ec 3700     		.short	55
 460 00ee 3700     		.short	55
 461 00f0 3600     		.short	54
 462 00f2 3600     		.short	54
 463 00f4 3600     		.short	54
 464 00f6 3500     		.short	53
 465 00f8 3500     		.short	53
 466 00fa 3500     		.short	53
 467 00fc 3400     		.short	52
 468 00fe 3400     		.short	52
 469 0100 3300     		.short	51
 470 0102 3300     		.short	51
 471 0104 3300     		.short	51
 472 0106 3200     		.short	50
 473 0108 3200     		.short	50
 474 010a 3100     		.short	49
 475 010c 3100     		.short	49
 476 010e 3000     		.short	48
 477 0110 3000     		.short	48
 478 0112 2F00     		.short	47
 479 0114 2E00     		.short	46
 480 0116 2E00     		.short	46
 481 0118 2D00     		.short	45
 482 011a 2D00     		.short	45
 483 011c 2C00     		.short	44
 484 011e 2B00     		.short	43
 485 0120 2B00     		.short	43
 486 0122 2A00     		.short	42
 487 0124 2900     		.short	41
 488 0126 2900     		.short	41
 489 0128 2800     		.short	40
 490 012a 2700     		.short	39
 491 012c 2700     		.short	39
 492 012e 2600     		.short	38
 493 0130 2500     		.short	37
 494 0132 2400     		.short	36
 495 0134 2400     		.short	36
 496 0136 2300     		.short	35
 497 0138 2200     		.short	34
 498 013a 2100     		.short	33
 499 013c 2100     		.short	33
 500 013e 2000     		.short	32
 501 0140 1F00     		.short	31
 502 0142 1E00     		.short	30
 503 0144 1D00     		.short	29
 504 0146 1D00     		.short	29
 505 0148 1C00     		.short	28
 506 014a 1B00     		.short	27
 507 014c 1A00     		.short	26
 508 014e 1A00     		.short	26
 509 0150 1900     		.short	25
 510 0152 1800     		.short	24
 511 0154 1700     		.short	23
 512 0156 1700     		.short	23
ARM GAS  C:\Users\Home\AppData\Local\Temp\ccoiCslh.s 			page 12


 513 0158 1600     		.short	22
 514 015a 1500     		.short	21
 515 015c 1500     		.short	21
 516 015e 1400     		.short	20
 517 0160 1300     		.short	19
 518 0162 1300     		.short	19
 519 0164 1200     		.short	18
 520 0166 1100     		.short	17
 521 0168 1100     		.short	17
 522 016a 1000     		.short	16
 523 016c 1000     		.short	16
 524 016e 0F00     		.short	15
 525 0170 0E00     		.short	14
 526 0172 0E00     		.short	14
 527 0174 0D00     		.short	13
 528 0176 0D00     		.short	13
 529 0178 0C00     		.short	12
 530 017a 0C00     		.short	12
 531 017c 0B00     		.short	11
 532 017e 0B00     		.short	11
 533 0180 0B00     		.short	11
 534 0182 0A00     		.short	10
 535 0184 0A00     		.short	10
 536 0186 0900     		.short	9
 537 0188 0900     		.short	9
 538 018a 0900     		.short	9
 539 018c 0800     		.short	8
 540 018e 0800     		.short	8
 541 0190 0800     		.short	8
 542 0192 0700     		.short	7
 543 0194 0700     		.short	7
 544 0196 0700     		.short	7
 545 0198 0700     		.short	7
 546 019a 0600     		.short	6
 547 019c 0600     		.short	6
 548 019e 0600     		.short	6
 549 01a0 0600     		.short	6
 550 01a2 0600     		.short	6
 551 01a4 0600     		.short	6
 552 01a6 0500     		.short	5
 553 01a8 0500     		.short	5
 554 01aa 0500     		.short	5
 555 01ac 0500     		.short	5
 556 01ae 0500     		.short	5
 557 01b0 0500     		.short	5
 558 01b2 0500     		.short	5
 559 01b4 0500     		.short	5
 560 01b6 0500     		.short	5
 561 01b8 0500     		.short	5
 562 01ba 0500     		.short	5
 563 01bc 0500     		.short	5
 564 01be 0400     		.short	4
 565 01c0 0400     		.short	4
 566 01c2 0400     		.short	4
 567 01c4 0500     		.short	5
 568 01c6 0500     		.short	5
 569 01c8 0500     		.short	5
ARM GAS  C:\Users\Home\AppData\Local\Temp\ccoiCslh.s 			page 13


 570 01ca 0500     		.short	5
 571 01cc 0500     		.short	5
 572 01ce 0500     		.short	5
 573 01d0 0500     		.short	5
 574 01d2 0500     		.short	5
 575 01d4 0500     		.short	5
 576 01d6 0500     		.short	5
 577 01d8 0500     		.short	5
 578 01da 0500     		.short	5
 579 01dc 0600     		.short	6
 580 01de 0600     		.short	6
 581 01e0 0600     		.short	6
 582 01e2 0600     		.short	6
 583 01e4 0600     		.short	6
 584 01e6 0600     		.short	6
 585 01e8 0700     		.short	7
 586 01ea 0700     		.short	7
 587 01ec 0700     		.short	7
 588 01ee 0700     		.short	7
 589 01f0 0800     		.short	8
 590 01f2 0800     		.short	8
 591 01f4 0800     		.short	8
 592 01f6 0900     		.short	9
 593 01f8 0900     		.short	9
 594 01fa 0900     		.short	9
 595 01fc 0A00     		.short	10
 596 01fe 0A00     		.short	10
 597 0200 0B00     		.short	11
 598 0202 0B00     		.short	11
 599 0204 0B00     		.short	11
 600 0206 0C00     		.short	12
 601 0208 0C00     		.short	12
 602 020a 0D00     		.short	13
 603 020c 0D00     		.short	13
 604 020e 0E00     		.short	14
 605 0210 0E00     		.short	14
 606 0212 0F00     		.short	15
 607 0214 1000     		.short	16
 608 0216 1000     		.short	16
 609 0218 1100     		.short	17
 610 021a 1100     		.short	17
 611 021c 1200     		.short	18
 612 021e 1300     		.short	19
 613 0220 1300     		.short	19
 614 0222 1400     		.short	20
 615 0224 1500     		.short	21
 616 0226 1500     		.short	21
 617 0228 1600     		.short	22
 618 022a 1700     		.short	23
 619 022c 1700     		.short	23
 620 022e 1800     		.short	24
 621 0230 1900     		.short	25
 622 0232 1A00     		.short	26
 623 0234 1A00     		.short	26
 624 0236 1B00     		.short	27
 625 0238 1C00     		.short	28
 626 023a 1D00     		.short	29
ARM GAS  C:\Users\Home\AppData\Local\Temp\ccoiCslh.s 			page 14


 627 023c 1D00     		.short	29
 628 023e 1E00     		.short	30
 629              		.data
 630              		.align	3
 631              		.set	.LANCHOR0,. + 0
 632              		.type	PI, %object
 633              		.size	PI, 8
 634              	PI:
 635 0000 1F85EB51 		.word	1374389535
 636 0004 B81E0940 		.word	1074339512
 637              		.type	N, %object
 638              		.size	N, 4
 639              	N:
 640 0008 04000000 		.word	4
 641 000c 00000000 		.space	4
 642              		.type	Sine_Lookup, %object
 643              		.size	Sine_Lookup, 512
 644              	Sine_Lookup:
 645 0010 00000000 		.word	0
 646 0014 00003940 		.word	1077477376
 647 0018 00000000 		.word	0
 648 001c 00003B40 		.word	1077608448
 649 0020 00000000 		.word	0
 650 0024 00003E40 		.word	1077805056
 651 0028 00000000 		.word	0
 652 002c 00004040 		.word	1077936128
 653 0030 00000000 		.word	0
 654 0034 00804140 		.word	1078034432
 655 0038 00000000 		.word	0
 656 003c 00804240 		.word	1078099968
 657 0040 00000000 		.word	0
 658 0044 00804340 		.word	1078165504
 659 0048 00000000 		.word	0
 660 004c 00804440 		.word	1078231040
 661 0050 00000000 		.word	0
 662 0054 00804540 		.word	1078296576
 663 0058 00000000 		.word	0
 664 005c 00004640 		.word	1078329344
 665 0060 00000000 		.word	0
 666 0064 00004740 		.word	1078394880
 667 0068 00000000 		.word	0
 668 006c 00804740 		.word	1078427648
 669 0070 00000000 		.word	0
 670 0074 00004840 		.word	1078460416
 671 0078 00000000 		.word	0
 672 007c 00804840 		.word	1078493184
 673 0080 00000000 		.word	0
 674 0084 00004940 		.word	1078525952
 675 0088 00000000 		.word	0
 676 008c 00004940 		.word	1078525952
 677 0090 00000000 		.word	0
 678 0094 00004940 		.word	1078525952
 679 0098 00000000 		.word	0
 680 009c 00004940 		.word	1078525952
 681 00a0 00000000 		.word	0
 682 00a4 00004940 		.word	1078525952
 683 00a8 00000000 		.word	0
ARM GAS  C:\Users\Home\AppData\Local\Temp\ccoiCslh.s 			page 15


 684 00ac 00804840 		.word	1078493184
 685 00b0 00000000 		.word	0
 686 00b4 00004840 		.word	1078460416
 687 00b8 00000000 		.word	0
 688 00bc 00804740 		.word	1078427648
 689 00c0 00000000 		.word	0
 690 00c4 00004740 		.word	1078394880
 691 00c8 00000000 		.word	0
 692 00cc 00004640 		.word	1078329344
 693 00d0 00000000 		.word	0
 694 00d4 00804540 		.word	1078296576
 695 00d8 00000000 		.word	0
 696 00dc 00804440 		.word	1078231040
 697 00e0 00000000 		.word	0
 698 00e4 00804340 		.word	1078165504
 699 00e8 00000000 		.word	0
 700 00ec 00804240 		.word	1078099968
 701 00f0 00000000 		.word	0
 702 00f4 00804140 		.word	1078034432
 703 00f8 00000000 		.word	0
 704 00fc 00004040 		.word	1077936128
 705 0100 00000000 		.word	0
 706 0104 00003E40 		.word	1077805056
 707 0108 00000000 		.word	0
 708 010c 00003B40 		.word	1077608448
 709 0110 00000000 		.word	0
 710 0114 00003940 		.word	1077477376
 711 0118 00000000 		.word	0
 712 011c 00003740 		.word	1077346304
 713 0120 00000000 		.word	0
 714 0124 00003440 		.word	1077149696
 715 0128 00000000 		.word	0
 716 012c 00003240 		.word	1077018624
 717 0130 00000000 		.word	0
 718 0134 00002E40 		.word	1076756480
 719 0138 00000000 		.word	0
 720 013c 00002A40 		.word	1076494336
 721 0140 00000000 		.word	0
 722 0144 00002640 		.word	1076232192
 723 0148 00000000 		.word	0
 724 014c 00002240 		.word	1075970048
 725 0150 00000000 		.word	0
 726 0154 00001C40 		.word	1075576832
 727 0158 00000000 		.word	0
 728 015c 00001840 		.word	1075314688
 729 0160 00000000 		.word	0
 730 0164 00001040 		.word	1074790400
 731 0168 00000000 		.word	0
 732 016c 00000840 		.word	1074266112
 733 0170 00000000 		.word	0
 734 0174 00000040 		.word	1073741824
 735 0178 00000000 		.word	0
 736 017c 0000F03F 		.word	1072693248
 737 0180 00000000 		.word	0
 738 0184 00000000 		.word	0
 739 0188 00000000 		.word	0
 740 018c 00000000 		.word	0
ARM GAS  C:\Users\Home\AppData\Local\Temp\ccoiCslh.s 			page 16


 741 0190 00000000 		.word	0
 742 0194 00000000 		.word	0
 743 0198 00000000 		.word	0
 744 019c 00000000 		.word	0
 745 01a0 00000000 		.word	0
 746 01a4 00000000 		.word	0
 747 01a8 00000000 		.word	0
 748 01ac 0000F03F 		.word	1072693248
 749 01b0 00000000 		.word	0
 750 01b4 00000040 		.word	1073741824
 751 01b8 00000000 		.word	0
 752 01bc 00000840 		.word	1074266112
 753 01c0 00000000 		.word	0
 754 01c4 00001040 		.word	1074790400
 755 01c8 00000000 		.word	0
 756 01cc 00001840 		.word	1075314688
 757 01d0 00000000 		.word	0
 758 01d4 00001C40 		.word	1075576832
 759 01d8 00000000 		.word	0
 760 01dc 00002240 		.word	1075970048
 761 01e0 00000000 		.word	0
 762 01e4 00002640 		.word	1076232192
 763 01e8 00000000 		.word	0
 764 01ec 00002A40 		.word	1076494336
 765 01f0 00000000 		.word	0
 766 01f4 00002E40 		.word	1076756480
 767 01f8 00000000 		.word	0
 768 01fc 00003240 		.word	1077018624
 769 0200 00000000 		.word	0
 770 0204 00003440 		.word	1077149696
 771 0208 00000000 		.word	0
 772 020c 00003740 		.word	1077346304
 773              		.text
 774              	.Letext0:
 775              		.file 2 "f:\\psoc creator\\4.2\\psoc creator\\import\\gnu\\arm\\5.4.1\\arm-none-eabi\\include\\mac
 776              		.file 3 "f:\\psoc creator\\4.2\\psoc creator\\import\\gnu\\arm\\5.4.1\\arm-none-eabi\\include\\sys
 777              		.file 4 "Generated_Source\\PSoC4/PWM_1.h"